target datalayout = "e-m:e-p270:32:32-p271:32:32-p272:64:64-i64:64-i128:128-f80:128-n8:16:32:64-S128"
target triple = "x86_64-pc-linux-gnu"

%struct.DdManager = type { %struct.DdNode, ptr, ptr, ptr, ptr, ptr, ptr, ptr, i32, i32, double, double, double, i32, i32, i32, i32, i32, i32, ptr, ptr, %struct.DdSubtable, i32, i32, i32, i32, i32, i32, i32, double, i32, i32, i32, ptr, i64, double, i32, ptr, ptr, ptr, ptr, ptr, ptr, ptr, i32, ptr, ptr, ptr, ptr, ptr, ptr, i32, i32, i32, double, i32, i32, i32, i32, double, double, i32, i32, i32, i32, i32, i32, i32, i32, i32, ptr, ptr, i32, i32, i32, i32, i32, i32, ptr, ptr, ptr, ptr, ptr, ptr, ptr, ptr, i32, i64, i64, i64, i32, i64, i64, double, double, double, double, double, double, i32, ptr, ptr, i64 }
%struct.DdNode = type { i32, i32, ptr, %union.anon, i64 }
%union.anon = type { %struct.DdChildren }
%struct.DdChildren = type { ptr, ptr }
%struct.DdSubtable = type { ptr, i32, i32, i32, i32, i32, i32, i32, i32, i32, i32, i32 }
%struct.traventry = type { i32, ptr }

@s_CutLevel = internal global i32 0, align 4

; Function Attrs: nounwind uwtable
define ptr @Extra_bddNodePathsUnderCut(ptr noundef %0, ptr noundef %1, i32 noundef %2) #0 {
  %4 = alloca ptr, align 8
  %5 = alloca ptr, align 8
  %6 = alloca ptr, align 8
  %7 = alloca i32, align 4
  %8 = alloca ptr, align 8
  %9 = alloca ptr, align 8
  %10 = alloca ptr, align 8
  %11 = alloca ptr, align 8
  %12 = alloca i32, align 4
  %13 = alloca ptr, align 8
  %14 = alloca ptr, align 8
  %15 = alloca ptr, align 8
  %16 = alloca ptr, align 8
  %17 = alloca ptr, align 8
  %18 = alloca ptr, align 8
  %19 = alloca ptr, align 8
  store ptr %0, ptr %5, align 8, !tbaa !3
  store ptr %1, ptr %6, align 8, !tbaa !28
  store i32 %2, ptr %7, align 4, !tbaa !10
  call void @llvm.lifetime.start.p0(i64 8, ptr %8) #6
  call void @llvm.lifetime.start.p0(i64 8, ptr %9) #6
  call void @llvm.lifetime.start.p0(i64 8, ptr %10) #6
  call void @llvm.lifetime.start.p0(i64 8, ptr %11) #6
  %20 = load i32, ptr %7, align 4, !tbaa !10
  store i32 %20, ptr @s_CutLevel, align 4, !tbaa !10
  %21 = call ptr @st__init_table(ptr noundef @st__ptrcmp, ptr noundef @st__ptrhash)
  store ptr %21, ptr %10, align 8, !tbaa !41
  %22 = load ptr, ptr %6, align 8, !tbaa !28
  %23 = ptrtoint ptr %22 to i64
  %24 = and i64 %23, -2
  %25 = inttoptr i64 %24 to ptr
  %26 = getelementptr inbounds nuw %struct.DdNode, ptr %25, i32 0, i32 0
  %27 = load i32, ptr %26, align 8, !tbaa !33
  %28 = icmp eq i32 %27, 2147483647
  br i1 %28, label %29, label %79

29:                                               ; preds = %3
  %30 = load ptr, ptr %6, align 8, !tbaa !28
  %31 = load ptr, ptr %5, align 8, !tbaa !3
  %32 = getelementptr inbounds nuw %struct.DdManager, ptr %31, i32 0, i32 1
  %33 = load ptr, ptr %32, align 8, !tbaa !12
  %34 = icmp eq ptr %30, %33
  br i1 %34, label %35, label %50

35:                                               ; preds = %29
  %36 = load ptr, ptr %10, align 8, !tbaa !41
  %37 = load ptr, ptr %5, align 8, !tbaa !3
  %38 = getelementptr inbounds nuw %struct.DdManager, ptr %37, i32 0, i32 1
  %39 = load ptr, ptr %38, align 8, !tbaa !12
  %40 = load ptr, ptr %5, align 8, !tbaa !3
  %41 = getelementptr inbounds nuw %struct.DdManager, ptr %40, i32 0, i32 1
  %42 = load ptr, ptr %41, align 8, !tbaa !12
  %43 = call i32 @st__insert(ptr noundef %36, ptr noundef %39, ptr noundef %42)
  %44 = load ptr, ptr %5, align 8, !tbaa !3
  %45 = getelementptr inbounds nuw %struct.DdManager, ptr %44, i32 0, i32 1
  %46 = load ptr, ptr %45, align 8, !tbaa !12
  call void @Cudd_Ref(ptr noundef %46)
  %47 = load ptr, ptr %5, align 8, !tbaa !3
  %48 = getelementptr inbounds nuw %struct.DdManager, ptr %47, i32 0, i32 1
  %49 = load ptr, ptr %48, align 8, !tbaa !12
  call void @Cudd_Ref(ptr noundef %49)
  br label %77

50:                                               ; preds = %29
  %51 = load ptr, ptr %10, align 8, !tbaa !41
  %52 = load ptr, ptr %5, align 8, !tbaa !3
  %53 = getelementptr inbounds nuw %struct.DdManager, ptr %52, i32 0, i32 1
  %54 = load ptr, ptr %53, align 8, !tbaa !12
  %55 = ptrtoint ptr %54 to i64
  %56 = xor i64 %55, 1
  %57 = inttoptr i64 %56 to ptr
  %58 = load ptr, ptr %5, align 8, !tbaa !3
  %59 = getelementptr inbounds nuw %struct.DdManager, ptr %58, i32 0, i32 1
  %60 = load ptr, ptr %59, align 8, !tbaa !12
  %61 = ptrtoint ptr %60 to i64
  %62 = xor i64 %61, 1
  %63 = inttoptr i64 %62 to ptr
  %64 = call i32 @st__insert(ptr noundef %51, ptr noundef %57, ptr noundef %63)
  %65 = load ptr, ptr %5, align 8, !tbaa !3
  %66 = getelementptr inbounds nuw %struct.DdManager, ptr %65, i32 0, i32 1
  %67 = load ptr, ptr %66, align 8, !tbaa !12
  %68 = ptrtoint ptr %67 to i64
  %69 = xor i64 %68, 1
  %70 = inttoptr i64 %69 to ptr
  call void @Cudd_Ref(ptr noundef %70)
  %71 = load ptr, ptr %5, align 8, !tbaa !3
  %72 = getelementptr inbounds nuw %struct.DdManager, ptr %71, i32 0, i32 1
  %73 = load ptr, ptr %72, align 8, !tbaa !12
  %74 = ptrtoint ptr %73 to i64
  %75 = xor i64 %74, 1
  %76 = inttoptr i64 %75 to ptr
  call void @Cudd_Ref(ptr noundef %76)
  br label %77

77:                                               ; preds = %50, %35
  %78 = load ptr, ptr %10, align 8, !tbaa !41
  store ptr %78, ptr %4, align 8
  store i32 1, ptr %12, align 4
  br label %143

79:                                               ; preds = %3
  %80 = load ptr, ptr %5, align 8, !tbaa !3
  %81 = load ptr, ptr %6, align 8, !tbaa !28
  %82 = call ptr @Cudd_BddToAdd(ptr noundef %80, ptr noundef %81)
  store ptr %82, ptr %11, align 8, !tbaa !28
  %83 = load ptr, ptr %11, align 8, !tbaa !28
  call void @Cudd_Ref(ptr noundef %83)
  %84 = call ptr @st__init_table(ptr noundef @st__ptrcmp, ptr noundef @st__ptrhash)
  store ptr %84, ptr %8, align 8, !tbaa !41
  %85 = call ptr @st__init_table(ptr noundef @st__ptrcmp, ptr noundef @st__ptrhash)
  store ptr %85, ptr %9, align 8, !tbaa !41
  %86 = load ptr, ptr %5, align 8, !tbaa !3
  %87 = load ptr, ptr %11, align 8, !tbaa !28
  %88 = load ptr, ptr %8, align 8, !tbaa !41
  call void @CountNodeVisits_rec(ptr noundef %86, ptr noundef %87, ptr noundef %88)
  %89 = load ptr, ptr %5, align 8, !tbaa !3
  %90 = load ptr, ptr %11, align 8, !tbaa !28
  %91 = load ptr, ptr %5, align 8, !tbaa !3
  %92 = getelementptr inbounds nuw %struct.DdManager, ptr %91, i32 0, i32 1
  %93 = load ptr, ptr %92, align 8, !tbaa !12
  %94 = load ptr, ptr %8, align 8, !tbaa !41
  %95 = load ptr, ptr %9, align 8, !tbaa !41
  call void @CollectNodesAndComputePaths_rec(ptr noundef %89, ptr noundef %90, ptr noundef %93, ptr noundef %94, ptr noundef %95)
  call void @llvm.lifetime.start.p0(i64 8, ptr %13) #6
  call void @llvm.lifetime.start.p0(i64 8, ptr %14) #6
  call void @llvm.lifetime.start.p0(i64 8, ptr %15) #6
  %96 = load ptr, ptr %8, align 8, !tbaa !41
  %97 = call ptr @st__init_gen(ptr noundef %96)
  store ptr %97, ptr %13, align 8, !tbaa !43
  br label %98

98:                                               ; preds = %116, %79
  %99 = load ptr, ptr %13, align 8, !tbaa !43
  %100 = call i32 @st__gen(ptr noundef %99, ptr noundef %14, ptr noundef %15)
  %101 = icmp ne i32 %100, 0
  br i1 %101, label %104, label %102

102:                                              ; preds = %98
  %103 = load ptr, ptr %13, align 8, !tbaa !43
  call void @st__free_gen(ptr noundef %103)
  br label %104

104:                                              ; preds = %102, %98
  %105 = phi i1 [ true, %98 ], [ false, %102 ]
  br i1 %105, label %106, label %117

106:                                              ; preds = %104
  %107 = load ptr, ptr %5, align 8, !tbaa !3
  %108 = load ptr, ptr %15, align 8, !tbaa !47
  %109 = getelementptr inbounds nuw %struct.traventry, ptr %108, i32 0, i32 1
  %110 = load ptr, ptr %109, align 8, !tbaa !48
  call void @Cudd_RecursiveDeref(ptr noundef %107, ptr noundef %110)
  %111 = load ptr, ptr %15, align 8, !tbaa !47
  %112 = icmp ne ptr %111, null
  br i1 %112, label %113, label %115

113:                                              ; preds = %106
  %114 = load ptr, ptr %15, align 8, !tbaa !47
  call void @free(ptr noundef %114) #6
  store ptr null, ptr %15, align 8, !tbaa !47
  br label %116

115:                                              ; preds = %106
  br label %116

116:                                              ; preds = %115, %113
  br label %98, !llvm.loop !50

117:                                              ; preds = %104
  %118 = load ptr, ptr %8, align 8, !tbaa !41
  call void @st__free_table(ptr noundef %118)
  call void @llvm.lifetime.end.p0(i64 8, ptr %15) #6
  call void @llvm.lifetime.end.p0(i64 8, ptr %14) #6
  call void @llvm.lifetime.end.p0(i64 8, ptr %13) #6
  call void @llvm.lifetime.start.p0(i64 8, ptr %16) #6
  call void @llvm.lifetime.start.p0(i64 8, ptr %17) #6
  call void @llvm.lifetime.start.p0(i64 8, ptr %18) #6
  call void @llvm.lifetime.start.p0(i64 8, ptr %19) #6
  %119 = load ptr, ptr %9, align 8, !tbaa !41
  %120 = call ptr @st__init_gen(ptr noundef %119)
  store ptr %120, ptr %16, align 8, !tbaa !43
  br label %121

121:                                              ; preds = %129, %117
  %122 = load ptr, ptr %16, align 8, !tbaa !43
  %123 = call i32 @st__gen(ptr noundef %122, ptr noundef %17, ptr noundef %19)
  %124 = icmp ne i32 %123, 0
  br i1 %124, label %127, label %125

125:                                              ; preds = %121
  %126 = load ptr, ptr %16, align 8, !tbaa !43
  call void @st__free_gen(ptr noundef %126)
  br label %127

127:                                              ; preds = %125, %121
  %128 = phi i1 [ true, %121 ], [ false, %125 ]
  br i1 %128, label %129, label %138

129:                                              ; preds = %127
  %130 = load ptr, ptr %5, align 8, !tbaa !3
  %131 = load ptr, ptr %17, align 8, !tbaa !28
  %132 = call ptr @Cudd_addBddPattern(ptr noundef %130, ptr noundef %131)
  store ptr %132, ptr %18, align 8, !tbaa !28
  %133 = load ptr, ptr %18, align 8, !tbaa !28
  call void @Cudd_Ref(ptr noundef %133)
  %134 = load ptr, ptr %10, align 8, !tbaa !41
  %135 = load ptr, ptr %18, align 8, !tbaa !28
  %136 = load ptr, ptr %19, align 8, !tbaa !28
  %137 = call i32 @st__insert(ptr noundef %134, ptr noundef %135, ptr noundef %136)
  br label %121, !llvm.loop !51

138:                                              ; preds = %127
  %139 = load ptr, ptr %9, align 8, !tbaa !41
  call void @st__free_table(ptr noundef %139)
  call void @llvm.lifetime.end.p0(i64 8, ptr %19) #6
  call void @llvm.lifetime.end.p0(i64 8, ptr %18) #6
  call void @llvm.lifetime.end.p0(i64 8, ptr %17) #6
  call void @llvm.lifetime.end.p0(i64 8, ptr %16) #6
  %140 = load ptr, ptr %5, align 8, !tbaa !3
  %141 = load ptr, ptr %11, align 8, !tbaa !28
  call void @Cudd_RecursiveDeref(ptr noundef %140, ptr noundef %141)
  %142 = load ptr, ptr %10, align 8, !tbaa !41
  store ptr %142, ptr %4, align 8
  store i32 1, ptr %12, align 4
  br label %143

143:                                              ; preds = %138, %77
  call void @llvm.lifetime.end.p0(i64 8, ptr %11) #6
  call void @llvm.lifetime.end.p0(i64 8, ptr %10) #6
  call void @llvm.lifetime.end.p0(i64 8, ptr %9) #6
  call void @llvm.lifetime.end.p0(i64 8, ptr %8) #6
  %144 = load ptr, ptr %4, align 8
  ret ptr %144
}