; Function Attrs: nounwind uwtable
define ptr @Extra_bddNodePathsUnderCut(ptr noundef %0, ptr noundef %1, i32 noundef %2) local_unnamed_addr #0 {
  %4 = alloca ptr, align 8
  %5 = alloca ptr, align 8
  %6 = alloca ptr, align 8
  %7 = alloca ptr, align 8
  store i32 %2, ptr @s_CutLevel, align 4, !tbaa !29
  %8 = tail call ptr @st__init_table(ptr noundef nonnull @st__ptrcmp, ptr noundef nonnull @st__ptrhash) #11
  %9 = ptrtoint ptr %1 to i64
  %10 = and i64 %9, -2
  %11 = inttoptr i64 %10 to ptr
  %12 = load i32, ptr %11, align 8, !tbaa !28
  %13 = icmp eq i32 %12, 2147483647
  br i1 %13, label %14, label %35

14:                                               ; preds = %3
  %15 = getelementptr inbounds nuw i8, ptr %0, i64 40
  %16 = load ptr, ptr %15, align 8, !tbaa !3
  %17 = icmp eq ptr %1, %16
  br i1 %17, label %18, label %22

18:                                               ; preds = %14
  %19 = tail call i32 @st__insert(ptr noundef %8, ptr noundef %16, ptr noundef %16) #11
  %20 = load ptr, ptr %15, align 8, !tbaa !3
  tail call void @Cudd_Ref(ptr noundef %20) #11
  %21 = load ptr, ptr %15, align 8, !tbaa !3
  tail call void @Cudd_Ref(ptr noundef %21) #11
  br label %57

22:                                               ; preds = %14
  %23 = ptrtoint ptr %16 to i64
  %24 = xor i64 %23, 1
  %25 = inttoptr i64 %24 to ptr
  %26 = tail call i32 @st__insert(ptr noundef %8, ptr noundef %25, ptr noundef %25) #11
  %27 = load ptr, ptr %15, align 8, !tbaa !3
  %28 = ptrtoint ptr %27 to i64
  %29 = xor i64 %28, 1
  %30 = inttoptr i64 %29 to ptr
  tail call void @Cudd_Ref(ptr noundef %30) #11
  %31 = load ptr, ptr %15, align 8, !tbaa !3
  %32 = ptrtoint ptr %31 to i64
  %33 = xor i64 %32, 1
  %34 = inttoptr i64 %33 to ptr
  tail call void @Cudd_Ref(ptr noundef %34) #11
  br label %57

35:                                               ; preds = %3
  %36 = tail call ptr @Cudd_BddToAdd(ptr noundef %0, ptr noundef %1) #11
  tail call void @Cudd_Ref(ptr noundef %36) #11
  %37 = tail call ptr @st__init_table(ptr noundef nonnull @st__ptrcmp, ptr noundef nonnull @st__ptrhash) #11
  %38 = tail call ptr @st__init_table(ptr noundef nonnull @st__ptrcmp, ptr noundef nonnull @st__ptrhash) #11
  tail call fastcc void @CountNodeVisits_rec(ptr noundef %0, ptr noundef %36, ptr noundef %37)
  %39 = getelementptr inbounds nuw i8, ptr %0, i64 40
  %40 = load ptr, ptr %39, align 8, !tbaa !3
  tail call fastcc void @CollectNodesAndComputePaths_rec(ptr noundef %0, ptr noundef %36, ptr noundef %40, ptr noundef %37, ptr noundef %38)
  call void @llvm.lifetime.start.p0(i64 8, ptr nonnull %4) #11
  call void @llvm.lifetime.start.p0(i64 8, ptr nonnull %5) #11
  %41 = tail call ptr @st__init_gen(ptr noundef %37) #11
  %42 = call i32 @st__gen(ptr noundef %41, ptr noundef nonnull %4, ptr noundef nonnull %5) #11
  %.not47 = icmp eq i32 %42, 0
  br i1 %.not47, label %._crit_edge, label %.critedge

._crit_edge:                                      ; preds = %50, %35
  call void @st__free_gen(ptr noundef %41) #11
  call void @st__free_table(ptr noundef %37) #11
  call void @llvm.lifetime.end.p0(i64 8, ptr nonnull %5) #11
  call void @llvm.lifetime.end.p0(i64 8, ptr nonnull %4) #11
  call void @llvm.lifetime.start.p0(i64 8, ptr nonnull %6) #11
  call void @llvm.lifetime.start.p0(i64 8, ptr nonnull %7) #11
  %43 = call ptr @st__init_gen(ptr noundef %38) #11
  %44 = call i32 @st__gen(ptr noundef %43, ptr noundef nonnull %6, ptr noundef nonnull %7) #11
  %.not4548 = icmp eq i32 %44, 0
  br i1 %.not4548, label %._crit_edge49, label %.critedge2

.critedge:                                        ; preds = %35, %50
  %45 = load ptr, ptr %5, align 8, !tbaa !38
  %46 = getelementptr inbounds nuw i8, ptr %45, i64 8
  %47 = load ptr, ptr %46, align 8, !tbaa !39
  call void @Cudd_RecursiveDeref(ptr noundef %0, ptr noundef %47) #11
  %48 = load ptr, ptr %5, align 8, !tbaa !38
  %.not46 = icmp eq ptr %48, null
  br i1 %.not46, label %50, label %49

49:                                               ; preds = %.critedge
  call void @free(ptr noundef nonnull %48) #11
  store ptr null, ptr %5, align 8, !tbaa !38
  br label %50

50:                                               ; preds = %.critedge, %49
  %51 = call i32 @st__gen(ptr noundef %41, ptr noundef nonnull %4, ptr noundef nonnull %5) #11
  %.not = icmp eq i32 %51, 0
  br i1 %.not, label %._crit_edge, label %.critedge, !llvm.loop !41

._crit_edge49:                                    ; preds = %.critedge2, %._crit_edge
  call void @st__free_gen(ptr noundef %43) #11
  call void @st__free_table(ptr noundef %38) #11
  call void @llvm.lifetime.end.p0(i64 8, ptr nonnull %7) #11
  call void @llvm.lifetime.end.p0(i64 8, ptr nonnull %6) #11
  call void @Cudd_RecursiveDeref(ptr noundef %0, ptr noundef %36) #11
  br label %57

.critedge2:                                       ; preds = %._crit_edge, %.critedge2
  %52 = load ptr, ptr %6, align 8, !tbaa !24
  %53 = call ptr @Cudd_addBddPattern(ptr noundef %0, ptr noundef %52) #11
  call void @Cudd_Ref(ptr noundef %53) #11
  %54 = load ptr, ptr %7, align 8, !tbaa !24
  %55 = call i32 @st__insert(ptr noundef %8, ptr noundef %53, ptr noundef %54) #11
  %56 = call i32 @st__gen(ptr noundef %43, ptr noundef nonnull %6, ptr noundef nonnull %7) #11
  %.not45 = icmp eq i32 %56, 0
  br i1 %.not45, label %._crit_edge49, label %.critedge2, !llvm.loop !42

57:                                               ; preds = %18, %22, %._crit_edge49
  ret ptr %8
}